; Function Attrs: mustprogress uwtable
define dso_local void @_ZN12SimpleThread4joinEv(ptr noundef nonnull readonly align 8 captures(none) dereferenceable(8) %0) local_unnamed_addr #0 align 2 {
  %2 = load ptr, ptr %0, align 8, !tbaa !14
  %.not = icmp eq ptr %2, null
  br i1 %.not, label %5, label %3

3:                                                ; preds = %1
  %.sroa.0.0.copyload.i = load i64, ptr %2, align 8, !tbaa !25
  %.not1 = icmp eq i64 %.sroa.0.0.copyload.i, 0
  br i1 %.not1, label %5, label %4

4:                                                ; preds = %3
  tail call void @_ZNSt6thread4joinEv(ptr noundef nonnull align 8 dereferenceable(8) %2)
  br label %5

5:                                                ; preds = %4, %3, %1
  ret void
}